; Function Attrs: nounwind uwtable
define dso_local void @PyFunction_SetVectorcall(ptr noundef %0, ptr noundef %1) local_unnamed_addr #0 {
  %3 = getelementptr inbounds nuw i8, ptr %0, i64 144
  %4 = load i32, ptr %3, align 8, !tbaa !119
  %5 = icmp ult i32 %4, 2
  br i1 %5, label %_PyFunction_ClearVersion.exit, label %6

6:                                                ; preds = %2
  %7 = tail call align 8 ptr @llvm.threadlocal.address.p0(ptr align 8 @_Py_tss_tstate)
  %8 = load ptr, ptr %7, align 8, !tbaa !4
  %9 = getelementptr inbounds nuw i8, ptr %8, i64 16
  %10 = load ptr, ptr %9, align 8, !tbaa !9
  tail call void @_PyEval_StopTheWorld(ptr noundef %10) #8
  %11 = load i32, ptr %3, align 8, !tbaa !119
  %12 = icmp ult i32 %11, 2
  br i1 %12, label %func_clear_version.exit.i, label %13

13:                                               ; preds = %6
  %14 = getelementptr inbounds nuw i8, ptr %10, i64 14112
  %15 = and i32 %11, 4095
  %16 = zext nneg i32 %15 to i64
  %17 = getelementptr %struct._func_version_cache_item, ptr %14, i64 %16
  %18 = load ptr, ptr %17, align 8, !tbaa !137
  %19 = icmp eq ptr %18, %0
  br i1 %19, label %20, label %21

20:                                               ; preds = %13
  store ptr null, ptr %17, align 8, !tbaa !137
  br label %21

21:                                               ; preds = %20, %13
  store i32 1, ptr %3, align 8, !tbaa !119
  br label %func_clear_version.exit.i

func_clear_version.exit.i:                        ; preds = %21, %6
  tail call void @_PyEval_StartTheWorld(ptr noundef %10) #8
  br label %_PyFunction_ClearVersion.exit

_PyFunction_ClearVersion.exit:                    ; preds = %2, %func_clear_version.exit.i
  %22 = getelementptr inbounds nuw i8, ptr %0, i64 136
  store ptr %1, ptr %22, align 8, !tbaa !118
  ret void
}